; Function Attrs: mustprogress nofree norecurse nosync nounwind willreturn memory(read, argmem: readwrite, inaccessiblemem: none) uwtable
define hidden noundef ptr @_ZN6Assimp3FBX6Parser18AdvanceToNextTokenEv(ptr nocapture noundef nonnull align 8 dereferenceable(49) %this) local_unnamed_addr #4 align 2 {
entry:
  %current = getelementptr inbounds i8, ptr %this, i64 24
  %0 = load ptr, ptr %current, align 8
  %last = getelementptr inbounds i8, ptr %this, i64 16
  store ptr %0, ptr %last, align 8
  %cursor = getelementptr inbounds i8, ptr %this, i64 32
  %1 = load ptr, ptr %this, align 8
  %_M_finish.i = getelementptr inbounds i8, ptr %1, i64 8
  %2 = load ptr, ptr %_M_finish.i, align 8
  %3 = load ptr, ptr %cursor, align 8
  %cmp.i = icmp eq ptr %3, %2
  br i1 %cmp.i, label %if.end, label %if.else

if.else:                                          ; preds = %entry
  %incdec.ptr.i = getelementptr inbounds i8, ptr %3, i64 8
  store ptr %incdec.ptr.i, ptr %cursor, align 8
  %4 = load ptr, ptr %3, align 8
  br label %if.end

if.end:                                           ; preds = %entry, %if.else
  %storemerge = phi ptr [ %4, %if.else ], [ null, %entry ]
  store ptr %storemerge, ptr %current, align 8
  ret ptr %storemerge
}